target datalayout = "e-m:e-p270:32:32-p271:32:32-p272:64:64-i64:64-i128:128-f80:128-n8:16:32:64-S128"
target triple = "x86_64-pc-linux-gnu"

%"class.icu_77::UnicodeString" = type { %"class.icu_77::Replaceable", %"union.icu_77::UnicodeString::StackBufferOrFields" }
%"class.icu_77::Replaceable" = type { %"class.icu_77::UObject" }
%"class.icu_77::UObject" = type { ptr }
%"union.icu_77::UnicodeString::StackBufferOrFields" = type { %struct.anon.0, [32 x i8] }
%struct.anon.0 = type { i16, i32, i32, ptr }
%"class.icu_77::CollationDataBuilder" = type { %"class.icu_77::UObject", ptr, ptr, ptr, ptr, %"class.icu_77::UVector32", %"class.icu_77::UVector64", %"class.icu_77::UVector", %"class.icu_77::UnicodeSet", %"class.icu_77::UnicodeString", i32, [4 x i8], %"class.icu_77::UnicodeSet", i8, i8, i8, ptr, ptr }
%"class.icu_77::UVector32" = type { %"class.icu_77::UObject", i32, i32, i32, ptr }
%"class.icu_77::UVector64" = type { %"class.icu_77::UObject", i32, i32, i32, ptr }
%"class.icu_77::UVector" = type { %"class.icu_77::UObject", i32, i32, ptr, ptr, ptr }
%"class.icu_77::UnicodeSet" = type <{ %"class.icu_77::UnicodeFilter", ptr, i32, i32, i8, [7 x i8], ptr, ptr, i32, [4 x i8], ptr, i32, [4 x i8], ptr, ptr, [25 x i32], [4 x i8] }>
%"class.icu_77::UnicodeFilter" = type { %"class.icu_77::UnicodeFunctor", %"class.icu_77::UnicodeMatcher" }
%"class.icu_77::UnicodeFunctor" = type { %"class.icu_77::UObject" }
%"class.icu_77::UnicodeMatcher" = type { ptr }
%"class.icu_77::UnicodeSetIterator" = type { %"class.icu_77::UObject", i32, i32, ptr, ptr, i32, i32, i32, i32, i32, i32, ptr }

; Function Attrs: inlinehint mustprogress uwtable
define linkonce_odr noundef ptr @_ZNK6icu_777UVectorixEi(ptr noundef nonnull align 8 dereferenceable(40) %0, i32 noundef %1) #7 comdat align 2 {
  %3 = alloca ptr, align 8
  %4 = alloca i32, align 4
  store ptr %0, ptr %3, align 8, !tbaa !146
  store i32 %1, ptr %4, align 4, !tbaa !57
  %5 = load ptr, ptr %3, align 8
  %6 = load i32, ptr %4, align 4, !tbaa !57
  %7 = call noundef ptr @_ZNK6icu_777UVector9elementAtEi(ptr noundef nonnull align 8 dereferenceable(40) %5, i32 noundef %6)
  ret ptr %7
}

; Function Attrs: inlinehint mustprogress nounwind uwtable
define linkonce_odr noundef i32 @_ZN6icu_779Collation11tagFromCE32Ej(i32 noundef %0) #3 comdat align 2 {
  %2 = alloca i32, align 4
  store i32 %0, ptr %2, align 4, !tbaa !57
  %3 = load i32, ptr %2, align 4, !tbaa !57
  %4 = and i32 %3, 15
  ret i32 %4
}

; Function Attrs: inlinehint mustprogress nounwind uwtable
define linkonce_odr noundef signext i8 @_ZN6icu_779Collation13isSpecialCE32Ej(i32 noundef %0) #3 comdat align 2 {
  %2 = alloca i32, align 4
  store i32 %0, ptr %2, align 4, !tbaa !57
  %3 = load i32, ptr %2, align 4, !tbaa !57
  %4 = and i32 %3, 255
  %5 = icmp uge i32 %4, 192
  %6 = zext i1 %5 to i8
  ret i8 %6
}

; Function Attrs: inlinehint mustprogress nounwind uwtable
define linkonce_odr void @_ZN6icu_7713UnicodeString13setZeroLengthEv(ptr noundef nonnull align 8 dereferenceable(64) %0) #3 comdat align 2 {
  %2 = alloca ptr, align 8
  store ptr %0, ptr %2, align 8, !tbaa !92
  %3 = load ptr, ptr %2, align 8
  %4 = getelementptr inbounds nuw %"class.icu_77::UnicodeString", ptr %3, i32 0, i32 1
  %5 = getelementptr inbounds nuw %struct.anon.0, ptr %4, i32 0, i32 0
  %6 = load i16, ptr %5, align 8, !tbaa !64
  %7 = sext i16 %6 to i32
  %8 = and i32 %7, 31
  %9 = trunc i32 %8 to i16
  store i16 %9, ptr %5, align 8, !tbaa !64
  ret void
}

; Function Attrs: inlinehint mustprogress nounwind uwtable
define linkonce_odr void @_ZN6icu_7713UnicodeString10setToEmptyEv(ptr noundef nonnull align 8 dereferenceable(64) %0) #3 comdat align 2 {
  %2 = alloca ptr, align 8
  store ptr %0, ptr %2, align 8, !tbaa !92
  %3 = load ptr, ptr %2, align 8
  %4 = getelementptr inbounds nuw %"class.icu_77::UnicodeString", ptr %3, i32 0, i32 1
  %5 = getelementptr inbounds nuw %struct.anon.0, ptr %4, i32 0, i32 0
  store i16 2, ptr %5, align 8, !tbaa !64
  ret void
}

; Function Attrs: inlinehint mustprogress nounwind uwtable
define linkonce_odr noundef signext i8 @_ZNK6icu_7713UnicodeString7isBogusEv(ptr noundef nonnull align 8 dereferenceable(64) %0) #3 comdat align 2 {
  %2 = alloca ptr, align 8
  store ptr %0, ptr %2, align 8, !tbaa !92
  %3 = load ptr, ptr %2, align 8
  %4 = getelementptr inbounds nuw %"class.icu_77::UnicodeString", ptr %3, i32 0, i32 1
  %5 = getelementptr inbounds nuw %struct.anon.0, ptr %4, i32 0, i32 0
  %6 = load i16, ptr %5, align 8, !tbaa !64
  %7 = sext i16 %6 to i32
  %8 = and i32 %7, 1
  %9 = trunc i32 %8 to i8
  ret i8 %9
}

; Function Attrs: inlinehint mustprogress uwtable
define linkonce_odr noundef ptr @_ZNK6icu_7720CollationDataBuilder18getConditionalCE32Ei(ptr noundef nonnull align 8 dereferenceable(640) %0, i32 noundef %1) #7 comdat align 2 {
  %3 = alloca ptr, align 8
  %4 = alloca i32, align 4
  store ptr %0, ptr %3, align 8, !tbaa !13
  store i32 %1, ptr %4, align 4, !tbaa !57
  %5 = load ptr, ptr %3, align 8
  %6 = getelementptr inbounds nuw %"class.icu_77::CollationDataBuilder", ptr %5, i32 0, i32 7
  %7 = load i32, ptr %4, align 4, !tbaa !57
  %8 = call noundef ptr @_ZNK6icu_777UVectorixEi(ptr noundef nonnull align 8 dereferenceable(40) %6, i32 noundef %7)
  ret ptr %8
}

; Function Attrs: inlinehint mustprogress nounwind uwtable
define linkonce_odr noundef i32 @_ZN6icu_779Collation13indexFromCE32Ej(i32 noundef %0) #3 comdat align 2 {
  %2 = alloca i32, align 4
  store i32 %0, ptr %2, align 4, !tbaa !57
  %3 = load i32, ptr %2, align 4, !tbaa !57
  %4 = lshr i32 %3, 13
  ret i32 %4
}

; Function Attrs: inlinehint mustprogress uwtable
define linkonce_odr noundef signext i8 @_ZN6icu_779Collation10hasCE32TagEji(i32 noundef %0, i32 noundef %1) #7 comdat align 2 {
  %3 = alloca i32, align 4
  %4 = alloca i32, align 4
  store i32 %0, ptr %3, align 4, !tbaa !57
  store i32 %1, ptr %4, align 4, !tbaa !57
  %5 = load i32, ptr %3, align 4, !tbaa !57
  %6 = call noundef signext i8 @_ZN6icu_779Collation13isSpecialCE32Ej(i32 noundef %5)
  %7 = icmp ne i8 %6, 0
  br i1 %7, label %8, label %13

8:                                                ; preds = %2
  %9 = load i32, ptr %3, align 4, !tbaa !57
  %10 = call noundef i32 @_ZN6icu_779Collation11tagFromCE32Ej(i32 noundef %9)
  %11 = load i32, ptr %4, align 4, !tbaa !57
  %12 = icmp eq i32 %10, %11
  br label %13

13:                                               ; preds = %8, %2
  %14 = phi i1 [ false, %2 ], [ %12, %8 ]
  %15 = zext i1 %14 to i8
  ret i8 %15
}

; Function Attrs: inlinehint mustprogress uwtable
define linkonce_odr noundef nonnull align 8 dereferenceable(64) ptr @_ZN6icu_7713UnicodeString6removeEv(ptr noundef nonnull align 8 dereferenceable(64) %0) #7 comdat align 2 {
  %2 = alloca ptr, align 8
  store ptr %0, ptr %2, align 8, !tbaa !92
  %3 = load ptr, ptr %2, align 8
  %4 = call noundef signext i8 @_ZNK6icu_7713UnicodeString7isBogusEv(ptr noundef nonnull align 8 dereferenceable(64) %3)
  %5 = icmp ne i8 %4, 0
  br i1 %5, label %6, label %7

6:                                                ; preds = %1
  call void @_ZN6icu_7713UnicodeString10setToEmptyEv(ptr noundef nonnull align 8 dereferenceable(64) %3)
  br label %8

7:                                                ; preds = %1
  call void @_ZN6icu_7713UnicodeString13setZeroLengthEv(ptr noundef nonnull align 8 dereferenceable(64) %3)
  br label %8

8:                                                ; preds = %7, %6
  ret ptr %3
}

; Function Attrs: inlinehint mustprogress uwtable
define linkonce_odr noundef ptr @_ZNK6icu_7720CollationDataBuilder25getConditionalCE32ForCE32Ej(ptr noundef nonnull align 8 dereferenceable(640) %0, i32 noundef %1) #7 comdat align 2 {
  %3 = alloca ptr, align 8
  %4 = alloca i32, align 4
  store ptr %0, ptr %3, align 8, !tbaa !13
  store i32 %1, ptr %4, align 4, !tbaa !57
  %5 = load ptr, ptr %3, align 8
  %6 = load i32, ptr %4, align 4, !tbaa !57
  %7 = call noundef i32 @_ZN6icu_779Collation13indexFromCE32Ej(i32 noundef %6)
  %8 = call noundef ptr @_ZNK6icu_7720CollationDataBuilder18getConditionalCE32Ei(ptr noundef nonnull align 8 dereferenceable(640) %5, i32 noundef %7)
  ret ptr %8
}

; Function Attrs: inlinehint mustprogress uwtable
define linkonce_odr noundef signext i8 @_ZN6icu_7720CollationDataBuilder20isBuilderContextCE32Ej(i32 noundef %0) #7 comdat align 2 {
  %2 = alloca i32, align 4
  store i32 %0, ptr %2, align 4, !tbaa !57
  %3 = load i32, ptr %2, align 4, !tbaa !57
  %4 = call noundef signext i8 @_ZN6icu_779Collation10hasCE32TagEji(i32 noundef %3, i32 noundef 7)
  ret i8 %4
}

; Function Attrs: inlinehint mustprogress nounwind uwtable
define linkonce_odr noundef i32 @_ZNK6icu_7718UnicodeSetIterator12getCodepointEv(ptr noundef nonnull align 8 dereferenceable(64) %0) #3 comdat align 2 {
  %2 = alloca ptr, align 8
  store ptr %0, ptr %2, align 8, !tbaa !186
  %3 = load ptr, ptr %2, align 8
  %4 = getelementptr inbounds nuw %"class.icu_77::UnicodeSetIterator", ptr %3, i32 0, i32 1
  %5 = load i32, ptr %4, align 8, !tbaa !188
  ret i32 %5
}

; Function Attrs: inlinehint mustprogress nounwind uwtable
define internal noundef signext i8 @_ZL9U_SUCCESS10UErrorCode(i32 noundef %0) #3 {
  %2 = alloca i32, align 4
  store i32 %0, ptr %2, align 4, !tbaa !97
  %3 = load i32, ptr %2, align 4, !tbaa !97
  %4 = icmp sle i32 %3, 0
  %5 = zext i1 %4 to i8
  ret i8 %5
}

; Function Attrs: mustprogress uwtable
define void @_ZN6icu_7720CollationDataBuilder13clearContextsEv(ptr noundef nonnull align 8 dereferenceable(640) %0) #4 align 2 {
  %2 = alloca ptr, align 8
  store ptr %0, ptr %2, align 8, !tbaa !13
  %3 = load ptr, ptr %2, align 8
  %4 = getelementptr inbounds nuw %"class.icu_77::CollationDataBuilder", ptr %3, i32 0, i32 9
  %5 = call noundef nonnull align 8 dereferenceable(64) ptr @_ZN6icu_7713UnicodeString6removeEv(ptr noundef nonnull align 8 dereferenceable(64) %4)
  %6 = getelementptr inbounds nuw %"class.icu_77::CollationDataBuilder", ptr %3, i32 0, i32 10
  %7 = load i32, ptr %6, align 8, !tbaa !122
  %8 = add nsw i32 %7, 1
  store i32 %8, ptr %6, align 8, !tbaa !122
  ret void
}

; Function Attrs: inlinehint mustprogress nounwind uwtable
define internal noundef signext i8 @_ZL9U_FAILURE10UErrorCode(i32 noundef %0) #3 {
  %2 = alloca i32, align 4
  store i32 %0, ptr %2, align 4, !tbaa !97
  %3 = load i32, ptr %2, align 4, !tbaa !97
  %4 = icmp sgt i32 %3, 0
  %5 = zext i1 %4 to i8
  ret i8 %5
}

; Function Attrs: mustprogress uwtable
define void @_ZN6icu_7720CollationDataBuilder13buildContextsER10UErrorCode(ptr noundef nonnull align 8 dereferenceable(640) %0, ptr noundef nonnull align 4 dereferenceable(4) %1) #4 align 2 personality ptr @__gxx_personality_v0 {
  %3 = alloca ptr, align 8
  %4 = alloca ptr, align 8
  %5 = alloca %"class.icu_77::UnicodeSetIterator", align 8
  %6 = alloca ptr, align 8
  %7 = alloca i32, align 4
  %8 = alloca i32, align 4
  %9 = alloca i32, align 4
  %10 = alloca i32, align 4
  %11 = alloca ptr, align 8
  store ptr %0, ptr %3, align 8, !tbaa !13
  store ptr %1, ptr %4, align 8, !tbaa !8
  %12 = load ptr, ptr %3, align 8
  %13 = load ptr, ptr %4, align 8, !tbaa !8
  %14 = load i32, ptr %13, align 4, !tbaa !97
  %15 = call noundef signext i8 @_ZL9U_FAILURE10UErrorCode(i32 noundef %14)
  %16 = icmp ne i8 %15, 0
  br i1 %16, label %17, label %18

17:                                               ; preds = %2
  br label %84

18:                                               ; preds = %2
  call void @_ZN6icu_7720CollationDataBuilder13clearContextsEv(ptr noundef nonnull align 8 dereferenceable(640) %12)
  call void @llvm.lifetime.start.p0(i64 64, ptr %5) #11
  %19 = getelementptr inbounds nuw %"class.icu_77::CollationDataBuilder", ptr %12, i32 0, i32 8
  call void @_ZN6icu_7718UnicodeSetIteratorC1ERKNS_10UnicodeSetE(ptr noundef nonnull align 8 dereferenceable(64) %5, ptr noundef nonnull align 8 dereferenceable(200) %19)
  br label %20

20:                                               ; preds = %74, %18
  %21 = load ptr, ptr %4, align 8, !tbaa !8
  %22 = load i32, ptr %21, align 4, !tbaa !97
  %23 = invoke noundef signext i8 @_ZL9U_SUCCESS10UErrorCode(i32 noundef %22)
          to label %24 unwind label %46

24:                                               ; preds = %20
  %25 = icmp ne i8 %23, 0
  br i1 %25, label %26, label %30

26:                                               ; preds = %24
  %27 = invoke noundef signext i8 @_ZN6icu_7718UnicodeSetIterator4nextEv(ptr noundef nonnull align 8 dereferenceable(64) %5)
          to label %28 unwind label %46

28:                                               ; preds = %26
  %29 = icmp ne i8 %27, 0
  br label %30

30:                                               ; preds = %28, %24
  %31 = phi i1 [ false, %24 ], [ %29, %28 ]
  br i1 %31, label %32, label %81

32:                                               ; preds = %30
  call void @llvm.lifetime.start.p0(i64 4, ptr %8) #11
  %33 = invoke noundef i32 @_ZNK6icu_7718UnicodeSetIterator12getCodepointEv(ptr noundef nonnull align 8 dereferenceable(64) %5)
          to label %34 unwind label %50

34:                                               ; preds = %32
  store i32 %33, ptr %8, align 4, !tbaa !57
  call void @llvm.lifetime.start.p0(i64 4, ptr %9) #11
  %35 = getelementptr inbounds nuw %"class.icu_77::CollationDataBuilder", ptr %12, i32 0, i32 4
  %36 = load ptr, ptr %35, align 8, !tbaa !99
  %37 = load i32, ptr %8, align 4, !tbaa !57
  %38 = invoke i32 @utrie2_get32_77(ptr noundef %36, i32 noundef %37)
          to label %39 unwind label %54

39:                                               ; preds = %34
  store i32 %38, ptr %9, align 4, !tbaa !57
  %40 = load i32, ptr %9, align 4, !tbaa !57
  %41 = invoke noundef signext i8 @_ZN6icu_7720CollationDataBuilder20isBuilderContextCE32Ej(i32 noundef %40)
          to label %42 unwind label %54

42:                                               ; preds = %39
  %43 = icmp ne i8 %41, 0
  br i1 %43, label %58, label %44

44:                                               ; preds = %42
  %45 = load ptr, ptr %4, align 8, !tbaa !8
  store i32 5, ptr %45, align 4, !tbaa !97
  store i32 1, ptr %10, align 4
  br label %72

46:                                               ; preds = %26, %20
  %47 = landingpad { ptr, i32 }
          cleanup
  %48 = extractvalue { ptr, i32 } %47, 0
  store ptr %48, ptr %6, align 8
  %49 = extractvalue { ptr, i32 } %47, 1
  store i32 %49, ptr %7, align 4
  br label %85

50:                                               ; preds = %32
  %51 = landingpad { ptr, i32 }
          cleanup
  %52 = extractvalue { ptr, i32 } %51, 0
  store ptr %52, ptr %6, align 8
  %53 = extractvalue { ptr, i32 } %51, 1
  store i32 %53, ptr %7, align 4
  br label %80

54:                                               ; preds = %39, %34
  %55 = landingpad { ptr, i32 }
          cleanup
  %56 = extractvalue { ptr, i32 } %55, 0
  store ptr %56, ptr %6, align 8
  %57 = extractvalue { ptr, i32 } %55, 1
  store i32 %57, ptr %7, align 4
  br label %79

58:                                               ; preds = %42
  call void @llvm.lifetime.start.p0(i64 8, ptr %11) #11
  %59 = load i32, ptr %9, align 4, !tbaa !57
  %60 = invoke noundef ptr @_ZNK6icu_7720CollationDataBuilder25getConditionalCE32ForCE32Ej(ptr noundef nonnull align 8 dereferenceable(640) %12, i32 noundef %59)
          to label %61 unwind label %75

61:                                               ; preds = %58
  store ptr %60, ptr %11, align 8, !tbaa !9
  %62 = load ptr, ptr %11, align 8, !tbaa !9
  %63 = load ptr, ptr %4, align 8, !tbaa !8
  %64 = invoke noundef i32 @_ZN6icu_7720CollationDataBuilder12buildContextEPNS_15ConditionalCE32ER10UErrorCode(ptr noundef nonnull align 8 dereferenceable(640) %12, ptr noundef %62, ptr noundef nonnull align 4 dereferenceable(4) %63)
          to label %65 unwind label %75

65:                                               ; preds = %61
  store i32 %64, ptr %9, align 4, !tbaa !57
  %66 = getelementptr inbounds nuw %"class.icu_77::CollationDataBuilder", ptr %12, i32 0, i32 4
  %67 = load ptr, ptr %66, align 8, !tbaa !99
  %68 = load i32, ptr %8, align 4, !tbaa !57
  %69 = load i32, ptr %9, align 4, !tbaa !57
  %70 = load ptr, ptr %4, align 8, !tbaa !8
  invoke void @utrie2_set32_77(ptr noundef %67, i32 noundef %68, i32 noundef %69, ptr noundef %70)
          to label %71 unwind label %75

71:                                               ; preds = %65
  call void @llvm.lifetime.end.p0(i64 8, ptr %11) #11
  store i32 0, ptr %10, align 4
  br label %72

72:                                               ; preds = %71, %44
  call void @llvm.lifetime.end.p0(i64 4, ptr %9) #11
  call void @llvm.lifetime.end.p0(i64 4, ptr %8) #11
  %73 = load i32, ptr %10, align 4
  switch i32 %73, label %82 [
    i32 0, label %74
  ]

74:                                               ; preds = %72
  br label %20, !llvm.loop !201

75:                                               ; preds = %65, %61, %58
  %76 = landingpad { ptr, i32 }
          cleanup
  %77 = extractvalue { ptr, i32 } %76, 0
  store ptr %77, ptr %6, align 8
  %78 = extractvalue { ptr, i32 } %76, 1
  store i32 %78, ptr %7, align 4
  call void @llvm.lifetime.end.p0(i64 8, ptr %11) #11
  br label %79

79:                                               ; preds = %75, %54
  call void @llvm.lifetime.end.p0(i64 4, ptr %9) #11
  br label %80

80:                                               ; preds = %79, %50
  call void @llvm.lifetime.end.p0(i64 4, ptr %8) #11
  br label %85

81:                                               ; preds = %30
  store i32 0, ptr %10, align 4
  br label %82

82:                                               ; preds = %81, %72
  call void @_ZN6icu_7718UnicodeSetIteratorD1Ev(ptr noundef nonnull align 8 dereferenceable(64) %5) #11
  call void @llvm.lifetime.end.p0(i64 64, ptr %5) #11
  %83 = load i32, ptr %10, align 4
  switch i32 %83, label %91 [
    i32 0, label %84
    i32 1, label %84
  ]

84:                                               ; preds = %17, %82, %82
  ret void

85:                                               ; preds = %80, %46
  call void @_ZN6icu_7718UnicodeSetIteratorD1Ev(ptr noundef nonnull align 8 dereferenceable(64) %5) #11
  call void @llvm.lifetime.end.p0(i64 64, ptr %5) #11
  br label %86

86:                                               ; preds = %85
  %87 = load ptr, ptr %6, align 8
  %88 = load i32, ptr %7, align 4
  %89 = insertvalue { ptr, i32 } poison, ptr %87, 0
  %90 = insertvalue { ptr, i32 } %89, i32 %88, 1
  resume { ptr, i32 } %90

91:                                               ; preds = %82
  unreachable
}