; Function Attrs: mustprogress uwtable
define void @_ZN6icu_7720CollationDataBuilder13buildContextsER10UErrorCode(ptr noundef nonnull align 8 dereferenceable(640) %0, ptr noundef nonnull align 4 dereferenceable(4) %1) local_unnamed_addr #6 align 2 personality ptr @__gxx_personality_v0 {
  %3 = alloca %"class.icu_77::UnicodeSetIterator", align 8
  %4 = load i32, ptr %1, align 4, !tbaa !76
  %5 = icmp slt i32 %4, 1
  br i1 %5, label %6, label %42

6:                                                ; preds = %2
  %7 = getelementptr inbounds nuw i8, ptr %0, i64 352
  %8 = load i16, ptr %7, align 8, !tbaa !74
  %9 = and i16 %8, 1
  %.not.i.i = icmp eq i16 %9, 0
  %10 = and i16 %8, 30
  %storemerge.i.i = select i1 %.not.i.i, i16 %10, i16 2
  store i16 %storemerge.i.i, ptr %7, align 8, !tbaa !74
  %11 = getelementptr inbounds nuw i8, ptr %0, i64 408
  %12 = load i32, ptr %11, align 8, !tbaa !95
  %13 = add nsw i32 %12, 1
  store i32 %13, ptr %11, align 8, !tbaa !95
  call void @llvm.lifetime.start.p0(i64 64, ptr nonnull %3) #19
  %14 = getelementptr inbounds nuw i8, ptr %0, i64 144
  call void @_ZN6icu_7718UnicodeSetIteratorC1ERKNS_10UnicodeSetE(ptr noundef nonnull align 8 dereferenceable(64) %3, ptr noundef nonnull align 8 dereferenceable(200) %14)
  %15 = getelementptr inbounds nuw i8, ptr %3, i64 8
  %16 = getelementptr inbounds nuw i8, ptr %0, i64 32
  %17 = getelementptr inbounds nuw i8, ptr %0, i64 104
  br label %18

18:                                               ; preds = %38, %6
  %19 = load i32, ptr %1, align 4, !tbaa !76
  %20 = icmp sgt i32 %19, 0
  br i1 %20, label %.critedge, label %21

21:                                               ; preds = %18
  %22 = invoke noundef signext i8 @_ZN6icu_7718UnicodeSetIterator4nextEv(ptr noundef nonnull align 8 dereferenceable(64) %3)
          to label %23 unwind label %30

23:                                               ; preds = %21
  %.not18 = icmp eq i8 %22, 0
  br i1 %.not18, label %.critedge, label %24

24:                                               ; preds = %23
  %25 = load i32, ptr %15, align 8, !tbaa !158
  %26 = load ptr, ptr %16, align 8, !tbaa !80
  %27 = invoke i32 @utrie2_get32_77(ptr noundef %26, i32 noundef %25)
          to label %28 unwind label %32

28:                                               ; preds = %24
  %29 = and i32 %27, 207
  %narrow.i.i.not = icmp eq i32 %29, 199
  br i1 %narrow.i.i.not, label %34, label %.thread

.thread:                                          ; preds = %28
  store i32 5, ptr %1, align 4, !tbaa !76
  br label %.critedge

30:                                               ; preds = %21
  %31 = landingpad { ptr, i32 }
          cleanup
  br label %43

32:                                               ; preds = %24
  %33 = landingpad { ptr, i32 }
          cleanup
  br label %43

34:                                               ; preds = %28
  %35 = lshr i32 %27, 13
  %36 = invoke noundef ptr @_ZNK6icu_777UVector9elementAtEi(ptr noundef nonnull align 8 dereferenceable(40) %17, i32 noundef %35)
          to label %_ZNK6icu_7720CollationDataBuilder25getConditionalCE32ForCE32Ej.exit unwind label %40

_ZNK6icu_7720CollationDataBuilder25getConditionalCE32ForCE32Ej.exit: ; preds = %34
  %37 = invoke noundef i32 @_ZN6icu_7720CollationDataBuilder12buildContextEPNS_15ConditionalCE32ER10UErrorCode(ptr noundef nonnull align 8 dereferenceable(640) %0, ptr noundef %36, ptr noundef nonnull align 4 dereferenceable(4) %1)
          to label %38 unwind label %40

38:                                               ; preds = %_ZNK6icu_7720CollationDataBuilder25getConditionalCE32ForCE32Ej.exit
  %39 = load ptr, ptr %16, align 8, !tbaa !80
  invoke void @utrie2_set32_77(ptr noundef %39, i32 noundef %25, i32 noundef %37, ptr noundef nonnull %1)
          to label %18 unwind label %40, !llvm.loop !182

40:                                               ; preds = %34, %38, %_ZNK6icu_7720CollationDataBuilder25getConditionalCE32ForCE32Ej.exit
  %41 = landingpad { ptr, i32 }
          cleanup
  br label %43

.critedge:                                        ; preds = %23, %18, %.thread
  call void @_ZN6icu_7718UnicodeSetIteratorD1Ev(ptr noundef nonnull align 8 dereferenceable(64) %3) #19
  call void @llvm.lifetime.end.p0(i64 64, ptr nonnull %3) #19
  br label %42

42:                                               ; preds = %2, %.critedge
  ret void

43:                                               ; preds = %32, %40, %30
  %.pn.pn = phi { ptr, i32 } [ %31, %30 ], [ %41, %40 ], [ %33, %32 ]
  call void @_ZN6icu_7718UnicodeSetIteratorD1Ev(ptr noundef nonnull align 8 dereferenceable(64) %3) #19
  call void @llvm.lifetime.end.p0(i64 64, ptr nonnull %3) #19
  resume { ptr, i32 } %.pn.pn
}